target datalayout = "e-m:e-p270:32:32-p271:32:32-p272:64:64-i64:64-i128:128-f80:128-n8:16:32:64-S128"
target triple = "x86_64-pc-linux-gnu"

; Function Attrs: nounwind uwtable
define dso_local void @stroke_boxes(ptr noundef %0, float noundef %1) #0 {
  %3 = alloca ptr, align 8
  %4 = alloca float, align 4
  store ptr %0, ptr %3, align 8, !tbaa !7
  store float %1, ptr %4, align 4, !tbaa !23
  %5 = load ptr, ptr %3, align 8, !tbaa !7
  %6 = load float, ptr %4, align 4, !tbaa !23
  %7 = fpext reassoc nsz arcp contract afn float %6 to double
  %8 = fmul reassoc nsz arcp contract afn double %7, 2.500000e+00
  call void @cairo_set_line_width(ptr noundef %5, double noundef %8)
  %9 = load ptr, ptr %3, align 8, !tbaa !7
  call void @cairo_set_source_rgb(ptr noundef %9, double noundef 1.000000e+00, double noundef 1.000000e+00, double noundef 1.000000e+00)
  %10 = load ptr, ptr %3, align 8, !tbaa !7
  call void @cairo_stroke_preserve(ptr noundef %10)
  %11 = load ptr, ptr %3, align 8, !tbaa !7
  %12 = load float, ptr %4, align 4, !tbaa !23
  %13 = fpext reassoc nsz arcp contract afn float %12 to double
  call void @cairo_set_line_width(ptr noundef %11, double noundef %13)
  %14 = load ptr, ptr %3, align 8, !tbaa !7
  call void @cairo_set_source_rgb(ptr noundef %14, double noundef 0.000000e+00, double noundef 0.000000e+00, double noundef 0.000000e+00)
  %15 = load ptr, ptr %3, align 8, !tbaa !7
  call void @cairo_stroke(ptr noundef %15)
  ret void
}