; Function Attrs: nounwind uwtable
define dso_local void @stroke_boxes(ptr noundef %0, float noundef %1) local_unnamed_addr #0 {
  %3 = fpext reassoc nsz arcp contract afn float %1 to double
  %4 = fmul reassoc nsz arcp contract afn double %3, 2.500000e+00
  tail call void @cairo_set_line_width(ptr noundef %0, double noundef %4) #8
  tail call void @cairo_set_source_rgb(ptr noundef %0, double noundef 1.000000e+00, double noundef 1.000000e+00, double noundef 1.000000e+00) #8
  tail call void @cairo_stroke_preserve(ptr noundef %0) #8
  tail call void @cairo_set_line_width(ptr noundef %0, double noundef %3) #8
  tail call void @cairo_set_source_rgb(ptr noundef %0, double noundef 0.000000e+00, double noundef 0.000000e+00, double noundef 0.000000e+00) #8
  tail call void @cairo_stroke(ptr noundef %0) #8
  ret void
}